; Function Attrs: mustprogress nofree norecurse nosync nounwind willreturn memory(argmem: readwrite) uwtable
define dso_local void @zend_stream_init_filename_ex(ptr noundef writeonly captures(none) initializes((0, 80)) %0, ptr noundef %1) local_unnamed_addr #3 {
  %3 = getelementptr inbounds nuw i8, ptr %1, i64 4
  tail call void @llvm.memset.p0.i64(ptr noundef nonnull align 8 dereferenceable(80) %0, i8 0, i64 80, i1 false)
  %4 = load i32, ptr %3, align 4, !tbaa !13
  %5 = and i32 %4, 64
  %.not.i = icmp eq i32 %5, 0
  br i1 %.not.i, label %6, label %zend_string_copy.exit

6:                                                ; preds = %2
  %7 = load i32, ptr %1, align 4, !tbaa !14
  %8 = add i32 %7, 1
  store i32 %8, ptr %1, align 4, !tbaa !14
  br label %zend_string_copy.exit

zend_string_copy.exit:                            ; preds = %2, %6
  %9 = getelementptr inbounds nuw i8, ptr %0, i64 40
  store ptr %1, ptr %9, align 8, !tbaa !20
  ret void
}